; Function Attrs: mustprogress uwtable
define hidden void @_ZN7unifier6union2E11expr_offsetS0_(ptr noundef nonnull align 8 dereferenceable(57) %this, ptr %n1.coerce0, i32 %n1.coerce1, ptr %n2.coerce0, i32 %n2.coerce1) local_unnamed_addr #4 align 2 {
entry:
  %__tmp.i = alloca %class.expr_offset, align 8
  %n1 = alloca %class.expr_offset, align 8
  %n2 = alloca %class.expr_offset, align 8
  %ref.tmp = alloca i32, align 4
  store ptr %n1.coerce0, ptr %n1, align 8
  %0 = getelementptr inbounds i8, ptr %n1, i64 8
  store i32 %n1.coerce1, ptr %0, align 8
  store ptr %n2.coerce0, ptr %n2, align 8
  %1 = getelementptr inbounds i8, ptr %n2, i64 8
  store i32 %n2.coerce1, ptr %1, align 8
  %m_size = getelementptr inbounds i8, ptr %this, i64 40
  %2 = load ptr, ptr %m_size, align 8
  %cmp.i.i = icmp eq ptr %2, null
  br i1 %cmp.i.i, label %if.end, label %_ZNK6vectorI7svectorIN15expr_offset_mapIjE4dataEjELb1EjE4sizeEv.exit.i

_ZNK6vectorI7svectorIN15expr_offset_mapIjE4dataEjELb1EjE4sizeEv.exit.i: ; preds = %entry
  %arrayidx.i.i = getelementptr inbounds i8, ptr %2, i64 -4
  %3 = load i32, ptr %arrayidx.i.i, align 4
  %cmp.i = icmp ugt i32 %3, %n1.coerce1
  br i1 %cmp.i, label %if.then.i, label %_ZNK6vectorI7svectorIN15expr_offset_mapIjE4dataEjELb1EjE4sizeEv.exit.i3

if.then.i:                                        ; preds = %_ZNK6vectorI7svectorIN15expr_offset_mapIjE4dataEjELb1EjE4sizeEv.exit.i
  %idxprom.i.i = zext i32 %n1.coerce1 to i64
  %arrayidx.i7.i = getelementptr inbounds %class.svector.54, ptr %2, i64 %idxprom.i.i
  %4 = load i32, ptr %n1.coerce0, align 4
  %5 = load ptr, ptr %arrayidx.i7.i, align 8
  %cmp.i8.i = icmp eq ptr %5, null
  br i1 %cmp.i8.i, label %_ZNK6vectorI7svectorIN15expr_offset_mapIjE4dataEjELb1EjE4sizeEv.exit.i3, label %_ZNK6vectorIN15expr_offset_mapIjE4dataELb0EjE4sizeEv.exit.i

_ZNK6vectorIN15expr_offset_mapIjE4dataELb0EjE4sizeEv.exit.i: ; preds = %if.then.i
  %arrayidx.i10.i = getelementptr inbounds i8, ptr %5, i64 -4
  %6 = load i32, ptr %arrayidx.i10.i, align 4
  %cmp8.i = icmp ult i32 %4, %6
  br i1 %cmp8.i, label %land.lhs.true.i, label %_ZNK6vectorI7svectorIN15expr_offset_mapIjE4dataEjELb1EjE4sizeEv.exit.i3

land.lhs.true.i:                                  ; preds = %_ZNK6vectorIN15expr_offset_mapIjE4dataELb0EjE4sizeEv.exit.i
  %idxprom.i12.i = zext i32 %4 to i64
  %arrayidx.i13.i = getelementptr inbounds %"struct.expr_offset_map<unsigned int>::data", ptr %5, i64 %idxprom.i12.i
  %m_timestamp.i = getelementptr inbounds i8, ptr %arrayidx.i13.i, i64 4
  %7 = load i32, ptr %m_timestamp.i, align 4
  %m_timestamp10.i = getelementptr inbounds i8, ptr %this, i64 48
  %8 = load i32, ptr %m_timestamp10.i, align 8
  %cmp11.i = icmp eq i32 %7, %8
  br i1 %cmp11.i, label %if.then12.i, label %_ZNK6vectorI7svectorIN15expr_offset_mapIjE4dataEjELb1EjE4sizeEv.exit.i3

if.then12.i:                                      ; preds = %land.lhs.true.i
  %9 = load i32, ptr %arrayidx.i13.i, align 4
  br label %_ZNK6vectorI7svectorIN15expr_offset_mapIjE4dataEjELb1EjE4sizeEv.exit.i3

_ZNK6vectorI7svectorIN15expr_offset_mapIjE4dataEjELb1EjE4sizeEv.exit.i3: ; preds = %_ZNK6vectorI7svectorIN15expr_offset_mapIjE4dataEjELb1EjE4sizeEv.exit.i, %if.then.i, %_ZNK6vectorIN15expr_offset_mapIjE4dataELb0EjE4sizeEv.exit.i, %land.lhs.true.i, %if.then12.i
  %sz1.0.ph = phi i32 [ 1, %_ZNK6vectorI7svectorIN15expr_offset_mapIjE4dataEjELb1EjE4sizeEv.exit.i ], [ 1, %_ZNK6vectorIN15expr_offset_mapIjE4dataELb0EjE4sizeEv.exit.i ], [ 1, %land.lhs.true.i ], [ %9, %if.then12.i ], [ 1, %if.then.i ]
  %cmp.i5 = icmp ugt i32 %3, %n2.coerce1
  br i1 %cmp.i5, label %if.then.i7, label %_ZNK15expr_offset_mapIjE4findERK11expr_offsetRj.exit21

if.then.i7:                                       ; preds = %_ZNK6vectorI7svectorIN15expr_offset_mapIjE4dataEjELb1EjE4sizeEv.exit.i3
  %idxprom.i.i8 = zext i32 %n2.coerce1 to i64
  %arrayidx.i7.i9 = getelementptr inbounds %class.svector.54, ptr %2, i64 %idxprom.i.i8
  %10 = load i32, ptr %n2.coerce0, align 4
  %11 = load ptr, ptr %arrayidx.i7.i9, align 8
  %cmp.i8.i10 = icmp eq ptr %11, null
  br i1 %cmp.i8.i10, label %_ZNK15expr_offset_mapIjE4findERK11expr_offsetRj.exit21, label %_ZNK6vectorIN15expr_offset_mapIjE4dataELb0EjE4sizeEv.exit.i11

_ZNK6vectorIN15expr_offset_mapIjE4dataELb0EjE4sizeEv.exit.i11: ; preds = %if.then.i7
  %arrayidx.i10.i12 = getelementptr inbounds i8, ptr %11, i64 -4
  %12 = load i32, ptr %arrayidx.i10.i12, align 4
  %cmp8.i13 = icmp ult i32 %10, %12
  br i1 %cmp8.i13, label %land.lhs.true.i14, label %_ZNK15expr_offset_mapIjE4findERK11expr_offsetRj.exit21

land.lhs.true.i14:                                ; preds = %_ZNK6vectorIN15expr_offset_mapIjE4dataELb0EjE4sizeEv.exit.i11
  %idxprom.i12.i15 = zext i32 %10 to i64
  %arrayidx.i13.i16 = getelementptr inbounds %"struct.expr_offset_map<unsigned int>::data", ptr %11, i64 %idxprom.i12.i15
  %m_timestamp.i17 = getelementptr inbounds i8, ptr %arrayidx.i13.i16, i64 4
  %13 = load i32, ptr %m_timestamp.i17, align 4
  %m_timestamp10.i18 = getelementptr inbounds i8, ptr %this, i64 48
  %14 = load i32, ptr %m_timestamp10.i18, align 8
  %cmp11.i19 = icmp eq i32 %13, %14
  br i1 %cmp11.i19, label %if.then12.i20, label %_ZNK15expr_offset_mapIjE4findERK11expr_offsetRj.exit21

if.then12.i20:                                    ; preds = %land.lhs.true.i14
  %15 = load i32, ptr %arrayidx.i13.i16, align 4
  br label %_ZNK15expr_offset_mapIjE4findERK11expr_offsetRj.exit21

_ZNK15expr_offset_mapIjE4findERK11expr_offsetRj.exit21: ; preds = %_ZNK6vectorI7svectorIN15expr_offset_mapIjE4dataEjELb1EjE4sizeEv.exit.i3, %if.then.i7, %_ZNK6vectorIN15expr_offset_mapIjE4dataELb0EjE4sizeEv.exit.i11, %land.lhs.true.i14, %if.then12.i20
  %sz2.0 = phi i32 [ 1, %if.then.i7 ], [ %15, %if.then12.i20 ], [ 1, %land.lhs.true.i14 ], [ 1, %_ZNK6vectorIN15expr_offset_mapIjE4dataELb0EjE4sizeEv.exit.i11 ], [ 1, %_ZNK6vectorI7svectorIN15expr_offset_mapIjE4dataEjELb1EjE4sizeEv.exit.i3 ]
  %cmp = icmp ugt i32 %sz1.0.ph, %sz2.0
  br i1 %cmp, label %if.then, label %if.end

if.then:                                          ; preds = %_ZNK15expr_offset_mapIjE4findERK11expr_offsetRj.exit21
  call void @llvm.lifetime.start.p0(i64 16, ptr nonnull %__tmp.i)
  call void @llvm.memcpy.p0.p0.i64(ptr noundef nonnull align 8 dereferenceable(16) %__tmp.i, ptr noundef nonnull align 8 dereferenceable(16) %n1, i64 16, i1 false)
  call void @llvm.memcpy.p0.p0.i64(ptr noundef nonnull align 8 dereferenceable(12) %n1, ptr noundef nonnull align 8 dereferenceable(12) %n2, i64 12, i1 false)
  call void @llvm.memcpy.p0.p0.i64(ptr noundef nonnull align 8 dereferenceable(12) %n2, ptr noundef nonnull align 8 dereferenceable(12) %__tmp.i, i64 12, i1 false)
  call void @llvm.lifetime.end.p0(i64 16, ptr nonnull %__tmp.i)
  br label %if.end

if.end:                                           ; preds = %entry, %if.then, %_ZNK15expr_offset_mapIjE4findERK11expr_offsetRj.exit21
  %sz2.031 = phi i32 [ %sz2.0, %if.then ], [ %sz2.0, %_ZNK15expr_offset_mapIjE4findERK11expr_offsetRj.exit21 ], [ 1, %entry ]
  %sz1.02630 = phi i32 [ %sz1.0.ph, %if.then ], [ %sz1.0.ph, %_ZNK15expr_offset_mapIjE4findERK11expr_offsetRj.exit21 ], [ 1, %entry ]
  %m_find = getelementptr inbounds i8, ptr %this, i64 24
  call void @_ZN15expr_offset_mapI11expr_offsetE6insertERKS0_S3_(ptr noundef nonnull align 8 dereferenceable(12) %m_find, ptr noundef nonnull align 8 dereferenceable(12) %n1, ptr noundef nonnull align 8 dereferenceable(12) %n2)
  %add = add i32 %sz1.02630, %sz2.031
  store i32 %add, ptr %ref.tmp, align 4
  call void @_ZN15expr_offset_mapIjE6insertERK11expr_offsetRKj(ptr noundef nonnull align 8 dereferenceable(12) %m_size, ptr noundef nonnull align 8 dereferenceable(12) %n2, ptr noundef nonnull align 4 dereferenceable(4) %ref.tmp)
  call void @_ZN7unifier8save_varERK11expr_offsetS2_(ptr noundef nonnull align 8 dereferenceable(57) %this, ptr noundef nonnull align 8 dereferenceable(12) %n1, ptr noundef nonnull align 8 dereferenceable(12) %n2)
  ret void
}